	.file	"main.c"
	.text
	.section .rdata,"dr"
LC0:
	.ascii "%d \12\0"
	.text
	.globl	_execute_callback
	.def	_execute_callback;	.scl	2;	.type	32;	.endef
_execute_callback:
LFB14:
	.cfi_startproc
	pushl	%ebp
	.cfi_def_cfa_offset 8
	.cfi_offset 5, -8
	movl	%esp, %ebp
	.cfi_def_cfa_register 5
	subl	$40, %esp
	movl	12(%ebp), %eax
	movl	%eax, (%esp)
	movl	8(%ebp), %eax
	call	*%eax
	movl	%eax, -12(%ebp)
	movl	-12(%ebp), %eax
	movl	%eax, 4(%esp)
	movl	$LC0, (%esp)
	call	_printf
	nop
	leave
	.cfi_restore 5
	.cfi_def_cfa 4, 4
	ret
	.cfi_endproc
LFE14:
	.def	___main;	.scl	2;	.type	32;	.endef
	.globl	_main
	.def	_main;	.scl	2;	.type	32;	.endef
_main:
LFB15:
	.cfi_startproc
	pushl	%ebp
	.cfi_def_cfa_offset 8
	.cfi_offset 5, -8
	movl	%esp, %ebp
	.cfi_def_cfa_register 5
	andl	$-16, %esp
	subl	$32, %esp
	call	___main
	movl	$1, 24(%esp)
	movl	24(%esp), %eax
	movl	%eax, 28(%esp)
	movl	$1, 4(%esp)
	movl	$_num, (%esp)
	call	_execute_callback
	movl	$1, %eax
	leave
	.cfi_restore 5
	.cfi_def_cfa 4, 4
	ret
	.cfi_endproc
LFE15:
	.ident	"GCC: (MinGW.org GCC Build-2) 9.2.0"
	.def	_printf;	.scl	2;	.type	32;	.endef
	.def	_num;	.scl	2;	.type	32;	.endef
